; Function Attrs: mustprogress uwtable
define void @_ZNK6casadi7QpToNlp9get_statsB5cxx11EPv(ptr dead_on_unwind noalias writable sret(%"class.std::map.28") align 8 %0, ptr noundef nonnull align 8 dereferenceable(1480) %1, ptr noundef %2) unnamed_addr #3 align 2 personality ptr @__gxx_personality_v0 {
  %4 = alloca %"class.casadi::GenericType", align 8
  %5 = alloca %"class.std::map.28", align 8
  %6 = alloca %"class.std::__cxx11::basic_string", align 8
  %7 = alloca %"class.std::allocator.0", align 1
  tail call void @_ZNK6casadi5Conic9get_statsB5cxx11EPv(ptr dead_on_unwind writable sret(%"class.std::map.28") align 8 %0, ptr noundef nonnull align 8 dereferenceable(1472) %1, ptr noundef %2)
  %8 = getelementptr inbounds i8, ptr %1, i64 1472
  %9 = getelementptr inbounds i8, ptr %2, i64 192
  %10 = load i64, ptr %9, align 8
  %11 = trunc i64 %10 to i32
  %12 = invoke noundef ptr @_ZNK6casadi8Function6memoryEi(ptr noundef nonnull align 8 dereferenceable(8) %8, i32 noundef %11)
          to label %13 unwind label %32

13:                                               ; preds = %3
  %14 = invoke noundef ptr @_ZNK6casadi8FunctionptEv(ptr noundef nonnull align 8 dereferenceable(8) %8)
          to label %15 unwind label %32

15:                                               ; preds = %13
  %16 = load ptr, ptr %14, align 8
  %17 = getelementptr inbounds i8, ptr %16, i64 96
  %18 = load ptr, ptr %17, align 8
  invoke void %18(ptr dead_on_unwind nonnull writable sret(%"class.std::map.28") align 8 %5, ptr noundef nonnull align 8 dereferenceable(168) %14, ptr noundef %12)
          to label %19 unwind label %32

19:                                               ; preds = %15
  invoke void @_ZN6casadi11GenericTypeC1ERKSt3mapINSt7__cxx1112basic_stringIcSt11char_traitsIcESaIcEEES0_St4lessIS7_ESaISt4pairIKS7_S0_EEE(ptr noundef nonnull align 8 dereferenceable(8) %4, ptr noundef nonnull align 8 dereferenceable(48) %5)
          to label %20 unwind label %34

20:                                               ; preds = %19
  call void @_ZNSaIcEC1Ev(ptr noundef nonnull align 1 dereferenceable(1) %7) #18
  %21 = invoke noundef ptr @_ZNSt7__cxx1112basic_stringIcSt11char_traitsIcESaIcEE13_M_local_dataEv(ptr noundef nonnull align 8 dereferenceable(32) %6)
          to label %.noexc unwind label %36

.noexc:                                           ; preds = %20
  invoke void @_ZNSt7__cxx1112basic_stringIcSt11char_traitsIcESaIcEE12_Alloc_hiderC1EPcRKS3_(ptr noundef nonnull align 8 dereferenceable(8) %6, ptr noundef %21, ptr noundef nonnull align 1 dereferenceable(1) %7)
          to label %.noexc13 unwind label %36

.noexc13:                                         ; preds = %.noexc
  invoke void @_ZNSt7__cxx1112basic_stringIcSt11char_traitsIcESaIcEE12_M_constructIPKcEEvT_S8_St20forward_iterator_tag(ptr noundef nonnull align 8 dereferenceable(32) %6, ptr noundef nonnull @.str.19, ptr noundef nonnull getelementptr inbounds ([13 x i8], ptr @.str.19, i64 0, i64 12))
          to label %_ZNSt7__cxx1112basic_stringIcSt11char_traitsIcESaIcEEC2IS3_EEPKcRKS3_.exit unwind label %22

22:                                               ; preds = %.noexc13
  %23 = landingpad { ptr, i32 }
          cleanup
  call void @_ZNSaIcED2Ev(ptr noundef nonnull align 1 dereferenceable(1) %6) #18
  br label %.body

_ZNSt7__cxx1112basic_stringIcSt11char_traitsIcESaIcEEC2IS3_EEPKcRKS3_.exit: ; preds = %.noexc13
  %24 = invoke noundef nonnull align 8 dereferenceable(8) ptr @_ZNSt3mapINSt7__cxx1112basic_stringIcSt11char_traitsIcESaIcEEEN6casadi11GenericTypeESt4lessIS5_ESaISt4pairIKS5_S7_EEEixEOS5_(ptr noundef nonnull align 8 dereferenceable(48) %0, ptr noundef nonnull align 8 dereferenceable(32) %6)
          to label %25 unwind label %38

25:                                               ; preds = %_ZNSt7__cxx1112basic_stringIcSt11char_traitsIcESaIcEEC2IS3_EEPKcRKS3_.exit
  %26 = invoke noundef nonnull align 8 dereferenceable(8) ptr @_ZN6casadi12SharedObjectaSERKS0_(ptr noundef nonnull align 8 dereferenceable(8) %24, ptr noundef nonnull align 8 dereferenceable(8) %4)
          to label %_ZN6casadi11GenericTypeaSEOS0_.exit unwind label %38

_ZN6casadi11GenericTypeaSEOS0_.exit:              ; preds = %25
  call void @_ZNSt7__cxx1112basic_stringIcSt11char_traitsIcESaIcEED1Ev(ptr noundef nonnull align 8 dereferenceable(32) %6) #18
  call void @_ZNSaIcED1Ev(ptr noundef nonnull align 1 dereferenceable(1) %7) #18
  call void @_ZN6casadi12SharedObjectD2Ev(ptr noundef nonnull align 8 dereferenceable(8) %4) #18
  %27 = getelementptr inbounds i8, ptr %5, i64 16
  %28 = load ptr, ptr %27, align 8
  invoke void @_ZNSt8_Rb_treeINSt7__cxx1112basic_stringIcSt11char_traitsIcESaIcEEESt4pairIKS5_N6casadi11GenericTypeEESt10_Select1stISA_ESt4lessIS5_ESaISA_EE8_M_eraseEPSt13_Rb_tree_nodeISA_E(ptr noundef nonnull align 8 dereferenceable(48) %5, ptr noundef %28)
          to label %_ZNSt3mapINSt7__cxx1112basic_stringIcSt11char_traitsIcESaIcEEEN6casadi11GenericTypeESt4lessIS5_ESaISt4pairIKS5_S7_EEED2Ev.exit unwind label %29

29:                                               ; preds = %_ZN6casadi11GenericTypeaSEOS0_.exit
  %30 = landingpad { ptr, i32 }
          catch ptr null
  %31 = extractvalue { ptr, i32 } %30, 0
  call void @__clang_call_terminate(ptr %31) #21
  unreachable

_ZNSt3mapINSt7__cxx1112basic_stringIcSt11char_traitsIcESaIcEEEN6casadi11GenericTypeESt4lessIS5_ESaISt4pairIKS5_S7_EEED2Ev.exit: ; preds = %_ZN6casadi11GenericTypeaSEOS0_.exit
  ret void

32:                                               ; preds = %15, %13, %3
  %33 = landingpad { ptr, i32 }
          cleanup
  br label %41

34:                                               ; preds = %19
  %35 = landingpad { ptr, i32 }
          cleanup
  br label %40

36:                                               ; preds = %.noexc, %20
  %37 = landingpad { ptr, i32 }
          cleanup
  br label %.body

38:                                               ; preds = %25, %_ZNSt7__cxx1112basic_stringIcSt11char_traitsIcESaIcEEC2IS3_EEPKcRKS3_.exit
  %39 = landingpad { ptr, i32 }
          cleanup
  call void @_ZNSt7__cxx1112basic_stringIcSt11char_traitsIcESaIcEED1Ev(ptr noundef nonnull align 8 dereferenceable(32) %6) #18
  br label %.body

.body:                                            ; preds = %36, %22, %38
  %.pn = phi { ptr, i32 } [ %39, %38 ], [ %37, %36 ], [ %23, %22 ]
  call void @_ZNSaIcED1Ev(ptr noundef nonnull align 1 dereferenceable(1) %7) #18
  call void @_ZN6casadi12SharedObjectD2Ev(ptr noundef nonnull align 8 dereferenceable(8) %4) #18
  br label %40

40:                                               ; preds = %.body, %34
  %.pn.pn = phi { ptr, i32 } [ %.pn, %.body ], [ %35, %34 ]
  call void @_ZNSt3mapINSt7__cxx1112basic_stringIcSt11char_traitsIcESaIcEEEN6casadi11GenericTypeESt4lessIS5_ESaISt4pairIKS5_S7_EEED2Ev(ptr noundef nonnull align 8 dereferenceable(48) %5) #18
  br label %41

41:                                               ; preds = %40, %32
  %.pn.pn.pn = phi { ptr, i32 } [ %.pn.pn, %40 ], [ %33, %32 ]
  call void @_ZNSt3mapINSt7__cxx1112basic_stringIcSt11char_traitsIcESaIcEEEN6casadi11GenericTypeESt4lessIS5_ESaISt4pairIKS5_S7_EEED2Ev(ptr noundef nonnull align 8 dereferenceable(48) %0) #18
  resume { ptr, i32 } %.pn.pn.pn
}